; ModuleID = '14/311.c'
source_filename = "14/311.c"
target datalayout = "e-m:e-p270:32:32-p271:32:32-p272:64:64-i64:64-f80:128-n8:16:32:64-S128"
target triple = "x86_64-pc-linux-gnu"

%struct.student = type { i32, i32, i32, i32 }

@.str = private unnamed_addr constant [3 x i8] c"%d\00", align 1
@.str.1 = private unnamed_addr constant [9 x i8] c"%d %d %d\00", align 1
@.str.2 = private unnamed_addr constant [7 x i8] c"%d %d\0A\00", align 1

; Function Attrs: noinline nounwind uwtable
define dso_local i32 @cmp(i8* %0, i8* %1) #0 {
  %3 = alloca i8*, align 8
  %4 = alloca i8*, align 8
  store i8* %0, i8** %3, align 8
  store i8* %1, i8** %4, align 8
  %5 = load i8*, i8** %3, align 8
  %6 = bitcast i8* %5 to i32*
  %7 = load i32, i32* %6, align 4
  %8 = load i8*, i8** %4, align 8
  %9 = bitcast i8* %8 to i32*
  %10 = load i32, i32* %9, align 4
  %11 = sub nsw i32 %7, %10
  ret i32 %11
}

; Function Attrs: noinline nounwind uwtable
define dso_local i32 @main() #0 {
  %1 = alloca i32, align 4
  %2 = alloca [100000 x %struct.student], align 16
  %3 = alloca [100000 x i32], align 16
  %4 = alloca i32, align 4
  %5 = alloca i32, align 4
  %6 = alloca i32, align 4
  %7 = alloca i32, align 4
  %8 = alloca i32, align 4
  %9 = alloca i32, align 4
  %10 = alloca i32, align 4
  %11 = alloca i32, align 4
  store i32 0, i32* %1, align 4
  %12 = call i32 (i8*, ...) @__isoc99_scanf(i8* getelementptr inbounds ([3 x i8], [3 x i8]* @.str, i64 0, i64 0), i32* %4)
  store i32 0, i32* %8, align 4
  br label %13

13:                                               ; preds = %45, %0
  %14 = load i32, i32* %8, align 4
  %15 = load i32, i32* %4, align 4
  %16 = icmp slt i32 %14, %15
  br i1 %16, label %17, label %48

17:                                               ; preds = %13
  %18 = load i32, i32* %8, align 4
  %19 = sext i32 %18 to i64
  %20 = getelementptr inbounds [100000 x %struct.student], [100000 x %struct.student]* %2, i64 0, i64 %19
  %21 = getelementptr inbounds %struct.student, %struct.student* %20, i32 0, i32 0
  %22 = load i32, i32* %8, align 4
  %23 = sext i32 %22 to i64
  %24 = getelementptr inbounds [100000 x %struct.student], [100000 x %struct.student]* %2, i64 0, i64 %23
  %25 = getelementptr inbounds %struct.student, %struct.student* %24, i32 0, i32 1
  %26 = load i32, i32* %8, align 4
  %27 = sext i32 %26 to i64
  %28 = getelementptr inbounds [100000 x %struct.student], [100000 x %struct.student]* %2, i64 0, i64 %27
  %29 = getelementptr inbounds %struct.student, %struct.student* %28, i32 0, i32 2
  %30 = call i32 (i8*, ...) @__isoc99_scanf(i8* getelementptr inbounds ([9 x i8], [9 x i8]* @.str.1, i64 0, i64 0), i32* %21, i32* %25, i32* %29)
  %31 = load i32, i32* %8, align 4
  %32 = sext i32 %31 to i64
  %33 = getelementptr inbounds [100000 x %struct.student], [100000 x %struct.student]* %2, i64 0, i64 %32
  %34 = getelementptr inbounds %struct.student, %struct.student* %33, i32 0, i32 1
  %35 = load i32, i32* %34, align 4
  %36 = load i32, i32* %8, align 4
  %37 = sext i32 %36 to i64
  %38 = getelementptr inbounds [100000 x %struct.student], [100000 x %struct.student]* %2, i64 0, i64 %37
  %39 = getelementptr inbounds %struct.student, %struct.student* %38, i32 0, i32 2
  %40 = load i32, i32* %39, align 8
  %41 = add nsw i32 %35, %40
  %42 = load i32, i32* %8, align 4
  %43 = sext i32 %42 to i64
  %44 = getelementptr inbounds [100000 x i32], [100000 x i32]* %3, i64 0, i64 %43
  store i32 %41, i32* %44, align 4
  br label %45

45:                                               ; preds = %17
  %46 = load i32, i32* %8, align 4
  %47 = add nsw i32 %46, 1
  store i32 %47, i32* %8, align 4
  br label %13

48:                                               ; preds = %13
  %49 = getelementptr inbounds [100000 x i32], [100000 x i32]* %3, i64 0, i64 0
  %50 = bitcast i32* %49 to i8*
  %51 = load i32, i32* %4, align 4
  %52 = sext i32 %51 to i64
  call void @qsort(i8* %50, i64 %52, i64 4, i32 (i8*, i8*)* @cmp)
  %53 = load i32, i32* %4, align 4
  %54 = sub nsw i32 %53, 1
  store i32 %54, i32* %9, align 4
  br label %55

55:                                               ; preds = %83, %48
  %56 = load i32, i32* %9, align 4
  %57 = icmp sge i32 %56, 0
  br i1 %57, label %58, label %86

58:                                               ; preds = %55
  %59 = load i32, i32* %4, align 4
  %60 = sub nsw i32 %59, 1
  %61 = sext i32 %60 to i64
  %62 = getelementptr inbounds [100000 x i32], [100000 x i32]* %3, i64 0, i64 %61
  %63 = load i32, i32* %62, align 4
  %64 = load i32, i32* %9, align 4
  %65 = sext i32 %64 to i64
  %66 = getelementptr inbounds [100000 x %struct.student], [100000 x %struct.student]* %2, i64 0, i64 %65
  %67 = getelementptr inbounds %struct.student, %struct.student* %66, i32 0, i32 1
  %68 = load i32, i32* %67, align 4
  %69 = load i32, i32* %9, align 4
  %70 = sext i32 %69 to i64
  %71 = getelementptr inbounds [100000 x %struct.student], [100000 x %struct.student]* %2, i64 0, i64 %70
  %72 = getelementptr inbounds %struct.student, %struct.student* %71, i32 0, i32 2
  %73 = load i32, i32* %72, align 8
  %74 = add nsw i32 %68, %73
  %75 = icmp eq i32 %63, %74
  br i1 %75, label %76, label %82

76:                                               ; preds = %58
  %77 = load i32, i32* %9, align 4
  %78 = sext i32 %77 to i64
  %79 = getelementptr inbounds [100000 x %struct.student], [100000 x %struct.student]* %2, i64 0, i64 %78
  %80 = getelementptr inbounds %struct.student, %struct.student* %79, i32 0, i32 0
  %81 = load i32, i32* %80, align 16
  store i32 %81, i32* %5, align 4
  br label %82

82:                                               ; preds = %76, %58
  br label %83

83:                                               ; preds = %82
  %84 = load i32, i32* %9, align 4
  %85 = add nsw i32 %84, -1
  store i32 %85, i32* %9, align 4
  br label %55

86:                                               ; preds = %55
  %87 = load i32, i32* %4, align 4
  %88 = sub nsw i32 %87, 1
  store i32 %88, i32* %10, align 4
  br label %89

89:                                               ; preds = %122, %86
  %90 = load i32, i32* %10, align 4
  %91 = icmp sge i32 %90, 0
  br i1 %91, label %92, label %125

92:                                               ; preds = %89
  %93 = load i32, i32* %4, align 4
  %94 = sub nsw i32 %93, 2
  %95 = sext i32 %94 to i64
  %96 = getelementptr inbounds [100000 x i32], [100000 x i32]* %3, i64 0, i64 %95
  %97 = load i32, i32* %96, align 4
  %98 = load i32, i32* %10, align 4
  %99 = sext i32 %98 to i64
  %100 = getelementptr inbounds [100000 x %struct.student], [100000 x %struct.student]* %2, i64 0, i64 %99
  %101 = getelementptr inbounds %struct.student, %struct.student* %100, i32 0, i32 1
  %102 = load i32, i32* %101, align 4
  %103 = load i32, i32* %10, align 4
  %104 = sext i32 %103 to i64
  %105 = getelementptr inbounds [100000 x %struct.student], [100000 x %struct.student]* %2, i64 0, i64 %104
  %106 = getelementptr inbounds %struct.student, %struct.student* %105, i32 0, i32 2
  %107 = load i32, i32* %106, align 8
  %108 = add nsw i32 %102, %107
  %109 = icmp eq i32 %97, %108
  br i1 %109, label %110, label %121

110:                                              ; preds = %92
  %111 = load i32, i32* %10, align 4
  %112 = add nsw i32 %111, 1
  %113 = load i32, i32* %5, align 4
  %114 = icmp ne i32 %112, %113
  br i1 %114, label %115, label %121

115:                                              ; preds = %110
  %116 = load i32, i32* %10, align 4
  %117 = sext i32 %116 to i64
  %118 = getelementptr inbounds [100000 x %struct.student], [100000 x %struct.student]* %2, i64 0, i64 %117
  %119 = getelementptr inbounds %struct.student, %struct.student* %118, i32 0, i32 0
  %120 = load i32, i32* %119, align 16
  store i32 %120, i32* %6, align 4
  br label %121

121:                                              ; preds = %115, %110, %92
  br label %122

122:                                              ; preds = %121
  %123 = load i32, i32* %10, align 4
  %124 = add nsw i32 %123, -1
  store i32 %124, i32* %10, align 4
  br label %89

125:                                              ; preds = %89
  %126 = load i32, i32* %4, align 4
  %127 = sub nsw i32 %126, 1
  store i32 %127, i32* %11, align 4
  br label %128

128:                                              ; preds = %166, %125
  %129 = load i32, i32* %11, align 4
  %130 = icmp sge i32 %129, 0
  br i1 %130, label %131, label %169

131:                                              ; preds = %128
  %132 = load i32, i32* %4, align 4
  %133 = sub nsw i32 %132, 3
  %134 = sext i32 %133 to i64
  %135 = getelementptr inbounds [100000 x i32], [100000 x i32]* %3, i64 0, i64 %134
  %136 = load i32, i32* %135, align 4
  %137 = load i32, i32* %11, align 4
  %138 = sext i32 %137 to i64
  %139 = getelementptr inbounds [100000 x %struct.student], [100000 x %struct.student]* %2, i64 0, i64 %138
  %140 = getelementptr inbounds %struct.student, %struct.student* %139, i32 0, i32 1
  %141 = load i32, i32* %140, align 4
  %142 = load i32, i32* %11, align 4
  %143 = sext i32 %142 to i64
  %144 = getelementptr inbounds [100000 x %struct.student], [100000 x %struct.student]* %2, i64 0, i64 %143
  %145 = getelementptr inbounds %struct.student, %struct.student* %144, i32 0, i32 2
  %146 = load i32, i32* %145, align 8
  %147 = add nsw i32 %141, %146
  %148 = icmp eq i32 %136, %147
  br i1 %148, label %149, label %165

149:                                              ; preds = %131
  %150 = load i32, i32* %11, align 4
  %151 = add nsw i32 %150, 1
  %152 = load i32, i32* %6, align 4
  %153 = icmp ne i32 %151, %152
  br i1 %153, label %154, label %165

154:                                              ; preds = %149
  %155 = load i32, i32* %11, align 4
  %156 = add nsw i32 %155, 1
  %157 = load i32, i32* %5, align 4
  %158 = icmp ne i32 %156, %157
  br i1 %158, label %159, label %165

159:                                              ; preds = %154
  %160 = load i32, i32* %11, align 4
  %161 = sext i32 %160 to i64
  %162 = getelementptr inbounds [100000 x %struct.student], [100000 x %struct.student]* %2, i64 0, i64 %161
  %163 = getelementptr inbounds %struct.student, %struct.student* %162, i32 0, i32 0
  %164 = load i32, i32* %163, align 16
  store i32 %164, i32* %7, align 4
  br label %165

165:                                              ; preds = %159, %154, %149, %131
  br label %166

166:                                              ; preds = %165
  %167 = load i32, i32* %11, align 4
  %168 = add nsw i32 %167, -1
  store i32 %168, i32* %11, align 4
  br label %128

169:                                              ; preds = %128
  %170 = load i32, i32* %5, align 4
  %171 = load i32, i32* %4, align 4
  %172 = sub nsw i32 %171, 1
  %173 = sext i32 %172 to i64
  %174 = getelementptr inbounds [100000 x i32], [100000 x i32]* %3, i64 0, i64 %173
  %175 = load i32, i32* %174, align 4
  %176 = call i32 (i8*, ...) @printf(i8* getelementptr inbounds ([7 x i8], [7 x i8]* @.str.2, i64 0, i64 0), i32 %170, i32 %175)
  %177 = load i32, i32* %6, align 4
  %178 = load i32, i32* %4, align 4
  %179 = sub nsw i32 %178, 2
  %180 = sext i32 %179 to i64
  %181 = getelementptr inbounds [100000 x i32], [100000 x i32]* %3, i64 0, i64 %180
  %182 = load i32, i32* %181, align 4
  %183 = call i32 (i8*, ...) @printf(i8* getelementptr inbounds ([7 x i8], [7 x i8]* @.str.2, i64 0, i64 0), i32 %177, i32 %182)
  %184 = load i32, i32* %7, align 4
  %185 = load i32, i32* %4, align 4
  %186 = sub nsw i32 %185, 3
  %187 = sext i32 %186 to i64
  %188 = getelementptr inbounds [100000 x i32], [100000 x i32]* %3, i64 0, i64 %187
  %189 = load i32, i32* %188, align 4
  %190 = call i32 (i8*, ...) @printf(i8* getelementptr inbounds ([7 x i8], [7 x i8]* @.str.2, i64 0, i64 0), i32 %184, i32 %189)
  %191 = load i32, i32* %1, align 4
  ret i32 %191
}

declare dso_local i32 @__isoc99_scanf(i8*, ...) #1

declare dso_local void @qsort(i8*, i64, i64, i32 (i8*, i8*)*) #1

declare dso_local i32 @printf(i8*, ...) #1


!llvm.module.flags = !{!0}
!llvm.ident = !{!1}

!0 = !{i32 1, !"wchar_size", i32 4}
!1 = !{!"clang version 10.0.0-4ubuntu1 "}
